target datalayout = "e-m:e-p270:32:32-p271:32:32-p272:64:64-i64:64-i128:128-f80:128-n8:16:32:64-S128"
target triple = "x86_64-pc-linux-gnu"

%"class.Assimp::MDLImporter" = type <{ %"class.Assimp::BaseImporter", i32, [4 x i8], %"class.std::__cxx11::basic_string", ptr, i32, [4 x i8], ptr, ptr, i32, %"struct.Assimp::MDL::HalfLife::HL1ImportSettings", i8 }>
%"class.Assimp::BaseImporter" = type { ptr, double, double, %"class.std::__cxx11::basic_string", %"class.std::__exception_ptr::exception_ptr", ptr }
%"class.std::__exception_ptr::exception_ptr" = type { ptr }
%"class.std::__cxx11::basic_string" = type { %"struct.std::__cxx11::basic_string<char>::_Alloc_hider", i64, %union.anon }
%"struct.std::__cxx11::basic_string<char>::_Alloc_hider" = type { ptr }
%union.anon = type { i64, [8 x i8] }
%"struct.Assimp::MDL::HalfLife::HL1ImportSettings" = type { i8, i8, i8, i8, i8, i8, i8, i8, i8, i8, i8 }
%struct.aiScene = type { i32, ptr, i32, ptr, i32, ptr, i32, ptr, i32, ptr, i32, ptr, i32, ptr, ptr, %struct.aiString, i32, ptr, ptr }
%struct.aiString = type { i32, [1024 x i8] }
%struct.aiMesh = type { i32, i32, i32, ptr, ptr, ptr, ptr, [8 x ptr], [8 x ptr], [8 x i32], ptr, i32, ptr, i32, %struct.aiString, i32, ptr, i32, %struct.aiAABB, ptr }
%struct.aiAABB = type { %class.aiVector3t, %class.aiVector3t }
%class.aiVector3t = type { float, float, float }
%"struct.Assimp::HMP::Header_HMP5" = type { [4 x i8], i32, [3 x float], [3 x float], float, float, float, float, i32, i32, i32, i32, i32, i32, i32, i32, float }
%struct.aiColor3D = type { float, float, float }

@.str.24 = private unnamed_addr constant [14 x i8] c"$mat.shadingm\00", align 1
@.str.25 = private unnamed_addr constant [13 x i8] c"$clr.diffuse\00", align 1
@.str.26 = private unnamed_addr constant [14 x i8] c"$clr.specular\00", align 1
@.str.27 = private unnamed_addr constant [13 x i8] c"$clr.ambient\00", align 1
@.str.28 = private unnamed_addr constant [16 x i8] c"DefaultMaterial\00", align 1
@.str.29 = private unnamed_addr constant [10 x i8] c"?mat.name\00", align 1

; Function Attrs: mustprogress nounwind uwtable
define linkonce_odr hidden void @_ZN8aiString3SetEPKc(ptr noundef nonnull align 4 dereferenceable(1028) %0, ptr noundef %1) #2 comdat align 2 {
  %3 = alloca ptr, align 8
  %4 = alloca ptr, align 8
  %5 = alloca i32, align 4
  store ptr %0, ptr %3, align 8
  store ptr %1, ptr %4, align 8
  %6 = load ptr, ptr %3, align 8
  call void @llvm.lifetime.start.p0(i64 4, ptr %5) #17
  %7 = load ptr, ptr %4, align 8
  %8 = call i64 @strlen(ptr noundef %7) #22
  %9 = trunc i64 %8 to i32
  store i32 %9, ptr %5, align 4
  %10 = load i32, ptr %5, align 4
  %11 = icmp sgt i32 %10, 1023
  br i1 %11, label %12, label %13

12:                                               ; preds = %2
  store i32 1023, ptr %5, align 4
  br label %13

13:                                               ; preds = %12, %2
  %14 = load i32, ptr %5, align 4
  %15 = getelementptr inbounds nuw %struct.aiString, ptr %6, i32 0, i32 0
  store i32 %14, ptr %15, align 4
  %16 = getelementptr inbounds nuw %struct.aiString, ptr %6, i32 0, i32 1
  %17 = getelementptr inbounds [1024 x i8], ptr %16, i64 0, i64 0
  %18 = load ptr, ptr %4, align 8
  %19 = load i32, ptr %5, align 4
  %20 = sext i32 %19 to i64
  call void @llvm.memcpy.p0.p0.i64(ptr align 4 %17, ptr align 1 %18, i64 %20, i1 false)
  %21 = getelementptr inbounds nuw %struct.aiString, ptr %6, i32 0, i32 1
  %22 = load i32, ptr %5, align 4
  %23 = sext i32 %22 to i64
  %24 = getelementptr inbounds [1024 x i8], ptr %21, i64 0, i64 %23
  store i8 0, ptr %24, align 1
  call void @llvm.lifetime.end.p0(i64 4, ptr %5) #17
  ret void
}

; Function Attrs: mustprogress nounwind uwtable
define linkonce_odr hidden void @_ZN8aiStringC2Ev(ptr noundef nonnull align 4 dereferenceable(1028) %0) unnamed_addr #2 comdat align 2 {
  %2 = alloca ptr, align 8
  store ptr %0, ptr %2, align 8
  %3 = load ptr, ptr %2, align 8
  %4 = getelementptr inbounds nuw %struct.aiString, ptr %3, i32 0, i32 0
  store i32 0, ptr %4, align 4
  %5 = getelementptr inbounds nuw %struct.aiString, ptr %3, i32 0, i32 1
  call void @llvm.memset.p0.i64(ptr align 4 %5, i8 0, i64 1024, i1 false)
  ret void
}

; Function Attrs: inlinehint mustprogress uwtable
define linkonce_odr hidden noundef i32 @_ZN10aiMaterial11AddPropertyI9aiColor3DEE8aiReturnPKT_jPKcjj(ptr noundef nonnull align 8 dereferenceable(16) %0, ptr noundef %1, i32 noundef %2, ptr noundef %3, i32 noundef %4, i32 noundef %5) #5 comdat align 2 {
  %7 = alloca ptr, align 8
  %8 = alloca ptr, align 8
  %9 = alloca i32, align 4
  %10 = alloca ptr, align 8
  %11 = alloca i32, align 4
  %12 = alloca i32, align 4
  store ptr %0, ptr %7, align 8
  store ptr %1, ptr %8, align 8
  store i32 %2, ptr %9, align 4
  store ptr %3, ptr %10, align 8
  store i32 %4, ptr %11, align 4
  store i32 %5, ptr %12, align 4
  %13 = load ptr, ptr %7, align 8
  %14 = load ptr, ptr %8, align 8
  %15 = load i32, ptr %9, align 4
  %16 = zext i32 %15 to i64
  %17 = mul i64 %16, 12
  %18 = trunc i64 %17 to i32
  %19 = load ptr, ptr %10, align 8
  %20 = load i32, ptr %11, align 4
  %21 = load i32, ptr %12, align 4
  %22 = call noundef i32 @_ZN10aiMaterial17AddBinaryPropertyEPKvjPKcjj18aiPropertyTypeInfo(ptr noundef nonnull align 8 dereferenceable(16) %13, ptr noundef %14, i32 noundef %18, ptr noundef %19, i32 noundef %20, i32 noundef %21, i32 noundef 1)
  ret i32 %22
}

; Function Attrs: mustprogress nounwind uwtable
define linkonce_odr hidden void @_ZN9aiColor3DC2Ev(ptr noundef nonnull align 4 dereferenceable(12) %0) unnamed_addr #2 comdat align 2 {
  %2 = alloca ptr, align 8
  store ptr %0, ptr %2, align 8
  %3 = load ptr, ptr %2, align 8
  %4 = getelementptr inbounds nuw %struct.aiColor3D, ptr %3, i32 0, i32 0
  store float 0.000000e+00, ptr %4, align 4
  %5 = getelementptr inbounds nuw %struct.aiColor3D, ptr %3, i32 0, i32 1
  store float 0.000000e+00, ptr %5, align 4
  %6 = getelementptr inbounds nuw %struct.aiColor3D, ptr %3, i32 0, i32 2
  store float 0.000000e+00, ptr %6, align 4
  ret void
}

; Function Attrs: inlinehint mustprogress uwtable
define linkonce_odr noundef i32 @_ZN10aiMaterial11AddPropertyIiEE8aiReturnPKT_jPKcjj(ptr noundef nonnull align 8 dereferenceable(16) %0, ptr noundef %1, i32 noundef %2, ptr noundef %3, i32 noundef %4, i32 noundef %5) #5 comdat align 2 {
  %7 = alloca ptr, align 8
  %8 = alloca ptr, align 8
  %9 = alloca i32, align 4
  %10 = alloca ptr, align 8
  %11 = alloca i32, align 4
  %12 = alloca i32, align 4
  store ptr %0, ptr %7, align 8
  store ptr %1, ptr %8, align 8
  store i32 %2, ptr %9, align 4
  store ptr %3, ptr %10, align 8
  store i32 %4, ptr %11, align 4
  store i32 %5, ptr %12, align 4
  %13 = load ptr, ptr %7, align 8
  %14 = load ptr, ptr %8, align 8
  %15 = load i32, ptr %9, align 4
  %16 = zext i32 %15 to i64
  %17 = mul i64 %16, 4
  %18 = trunc i64 %17 to i32
  %19 = load ptr, ptr %10, align 8
  %20 = load i32, ptr %11, align 4
  %21 = load i32, ptr %12, align 4
  %22 = call noundef i32 @_ZN10aiMaterial17AddBinaryPropertyEPKvjPKcjj18aiPropertyTypeInfo(ptr noundef nonnull align 8 dereferenceable(16) %13, ptr noundef %14, i32 noundef %18, ptr noundef %19, i32 noundef %20, i32 noundef %21, i32 noundef 4)
  ret i32 %22
}

; Function Attrs: mustprogress nounwind uwtable
define linkonce_odr hidden void @_ZN10aiVector3tIfEC2Ev(ptr noundef nonnull align 4 dereferenceable(12) %0) unnamed_addr #2 comdat align 2 {
  %2 = alloca ptr, align 8
  store ptr %0, ptr %2, align 8
  %3 = load ptr, ptr %2, align 8
  %4 = getelementptr inbounds nuw %class.aiVector3t, ptr %3, i32 0, i32 0
  store float 0.000000e+00, ptr %4, align 4
  %5 = getelementptr inbounds nuw %class.aiVector3t, ptr %3, i32 0, i32 1
  store float 0.000000e+00, ptr %5, align 4
  %6 = getelementptr inbounds nuw %class.aiVector3t, ptr %3, i32 0, i32 2
  store float 0.000000e+00, ptr %6, align 4
  ret void
}

; Function Attrs: mustprogress uwtable
define hidden void @_ZN6Assimp11HMPImporter14CreateMaterialEPKhPS2_(ptr noundef nonnull align 8 dereferenceable(159) %0, ptr noundef %1, ptr noundef %2) #0 align 2 personality ptr @__gxx_personality_v0 {
  %4 = alloca ptr, align 8
  %5 = alloca ptr, align 8
  %6 = alloca ptr, align 8
  %7 = alloca ptr, align 8
  %8 = alloca ptr, align 8
  %9 = alloca i32, align 4
  %10 = alloca i32, align 4
  %11 = alloca ptr, align 8
  %12 = alloca ptr, align 8
  %13 = alloca i32, align 4
  %14 = alloca %struct.aiColor3D, align 4
  %15 = alloca %struct.aiString, align 4
  store ptr %0, ptr %4, align 8
  store ptr %1, ptr %5, align 8
  store ptr %2, ptr %6, align 8
  %16 = load ptr, ptr %4, align 8
  call void @llvm.lifetime.start.p0(i64 8, ptr %7) #17
  %17 = getelementptr inbounds nuw %"class.Assimp::MDLImporter", ptr %16, i32 0, i32 8
  %18 = load ptr, ptr %17, align 8
  %19 = getelementptr inbounds nuw %struct.aiScene, ptr %18, i32 0, i32 3
  %20 = load ptr, ptr %19, align 8
  %21 = getelementptr inbounds ptr, ptr %20, i64 0
  %22 = load ptr, ptr %21, align 8
  store ptr %22, ptr %7, align 8
  call void @llvm.lifetime.start.p0(i64 8, ptr %8) #17
  %23 = getelementptr inbounds nuw %"class.Assimp::MDLImporter", ptr %16, i32 0, i32 4
  %24 = load ptr, ptr %23, align 8
  store ptr %24, ptr %8, align 8
  %25 = load ptr, ptr %8, align 8
  %26 = getelementptr inbounds nuw %"struct.Assimp::HMP::Header_HMP5", ptr %25, i32 0, i32 8
  %27 = load i32, ptr %26, align 1
  %28 = icmp ne i32 %27, 0
  br i1 %28, label %29, label %59

29:                                               ; preds = %3
  %30 = load ptr, ptr %8, align 8
  %31 = getelementptr inbounds nuw %"struct.Assimp::HMP::Header_HMP5", ptr %30, i32 0, i32 11
  %32 = load i32, ptr %31, align 1
  %33 = sext i32 %32 to i64
  %34 = call { i64, i1 } @llvm.umul.with.overflow.i64(i64 %33, i64 12)
  %35 = extractvalue { i64, i1 } %34, 1
  %36 = extractvalue { i64, i1 } %34, 0
  %37 = select i1 %35, i64 -1, i64 %36
  %38 = call noalias noundef nonnull ptr @_Znam(i64 noundef %37) #20
  %39 = icmp eq i64 %33, 0
  br i1 %39, label %46, label %40

40:                                               ; preds = %29
  %41 = getelementptr inbounds %class.aiVector3t, ptr %38, i64 %33
  br label %42

42:                                               ; preds = %42, %40
  %43 = phi ptr [ %38, %40 ], [ %44, %42 ]
  call void @_ZN10aiVector3tIfEC2Ev(ptr noundef nonnull align 4 dereferenceable(12) %43) #17
  %44 = getelementptr inbounds %class.aiVector3t, ptr %43, i64 1
  %45 = icmp eq ptr %44, %41
  br i1 %45, label %46, label %42

46:                                               ; preds = %29, %42
  %47 = load ptr, ptr %7, align 8
  %48 = getelementptr inbounds nuw %struct.aiMesh, ptr %47, i32 0, i32 8
  %49 = getelementptr inbounds [8 x ptr], ptr %48, i64 0, i64 0
  store ptr %38, ptr %49, align 8
  %50 = load ptr, ptr %7, align 8
  %51 = getelementptr inbounds nuw %struct.aiMesh, ptr %50, i32 0, i32 9
  %52 = getelementptr inbounds [8 x i32], ptr %51, i64 0, i64 0
  store i32 2, ptr %52, align 8
  %53 = load ptr, ptr %8, align 8
  %54 = getelementptr inbounds nuw %"struct.Assimp::HMP::Header_HMP5", ptr %53, i32 0, i32 8
  %55 = load i32, ptr %54, align 1
  %56 = load ptr, ptr %5, align 8
  call void @_ZN6Assimp11HMPImporter13ReadFirstSkinEjPKhPS2_(ptr noundef nonnull align 8 dereferenceable(159) %16, i32 noundef %55, ptr noundef %56, ptr noundef %5)
  %57 = load ptr, ptr %5, align 8
  %58 = load ptr, ptr %6, align 8
  store ptr %57, ptr %58, align 8
  store i32 1, ptr %9, align 4
  br label %93

59:                                               ; preds = %3
  call void @llvm.lifetime.start.p0(i64 4, ptr %10) #17
  store i32 2, ptr %10, align 4
  call void @llvm.lifetime.start.p0(i64 8, ptr %11) #17
  %60 = call noalias noundef nonnull ptr @_Znwm(i64 noundef 16) #20
  invoke void @_ZN10aiMaterialC1Ev(ptr noundef nonnull align 8 dereferenceable(16) %60)
          to label %61 unwind label %96

61:                                               ; preds = %59
  store ptr %60, ptr %11, align 8
  %62 = load ptr, ptr %11, align 8
  %63 = call noundef i32 @_ZN10aiMaterial11AddPropertyIiEE8aiReturnPKT_jPKcjj(ptr noundef nonnull align 8 dereferenceable(16) %62, ptr noundef %10, i32 noundef 1, ptr noundef @.str.24, i32 noundef 0, i32 noundef 0)
  call void @llvm.lifetime.start.p0(i64 12, ptr %14) #17
  call void @_ZN9aiColor3DC2Ev(ptr noundef nonnull align 4 dereferenceable(12) %14) #17
  %64 = getelementptr inbounds nuw %struct.aiColor3D, ptr %14, i32 0, i32 0
  store float 0x3FE3333340000000, ptr %64, align 4
  %65 = getelementptr inbounds nuw %struct.aiColor3D, ptr %14, i32 0, i32 1
  store float 0x3FE3333340000000, ptr %65, align 4
  %66 = getelementptr inbounds nuw %struct.aiColor3D, ptr %14, i32 0, i32 2
  store float 0x3FE3333340000000, ptr %66, align 4
  %67 = load ptr, ptr %11, align 8
  %68 = call noundef i32 @_ZN10aiMaterial11AddPropertyI9aiColor3DEE8aiReturnPKT_jPKcjj(ptr noundef nonnull align 8 dereferenceable(16) %67, ptr noundef %14, i32 noundef 1, ptr noundef @.str.25, i32 noundef 0, i32 noundef 0)
  %69 = load ptr, ptr %11, align 8
  %70 = call noundef i32 @_ZN10aiMaterial11AddPropertyI9aiColor3DEE8aiReturnPKT_jPKcjj(ptr noundef nonnull align 8 dereferenceable(16) %69, ptr noundef %14, i32 noundef 1, ptr noundef @.str.26, i32 noundef 0, i32 noundef 0)
  %71 = getelementptr inbounds nuw %struct.aiColor3D, ptr %14, i32 0, i32 0
  store float 0x3FA99999A0000000, ptr %71, align 4
  %72 = getelementptr inbounds nuw %struct.aiColor3D, ptr %14, i32 0, i32 1
  store float 0x3FA99999A0000000, ptr %72, align 4
  %73 = getelementptr inbounds nuw %struct.aiColor3D, ptr %14, i32 0, i32 2
  store float 0x3FA99999A0000000, ptr %73, align 4
  %74 = load ptr, ptr %11, align 8
  %75 = call noundef i32 @_ZN10aiMaterial11AddPropertyI9aiColor3DEE8aiReturnPKT_jPKcjj(ptr noundef nonnull align 8 dereferenceable(16) %74, ptr noundef %14, i32 noundef 1, ptr noundef @.str.27, i32 noundef 0, i32 noundef 0)
  call void @llvm.lifetime.start.p0(i64 1028, ptr %15) #17
  call void @_ZN8aiStringC2Ev(ptr noundef nonnull align 4 dereferenceable(1028) %15) #17
  call void @_ZN8aiString3SetEPKc(ptr noundef nonnull align 4 dereferenceable(1028) %15, ptr noundef @.str.28)
  %76 = load ptr, ptr %11, align 8
  %77 = call noundef i32 @_ZN10aiMaterial11AddPropertyEPK8aiStringPKcjj(ptr noundef nonnull align 8 dereferenceable(16) %76, ptr noundef %15, ptr noundef @.str.29, i32 noundef 0, i32 noundef 0)
  %78 = getelementptr inbounds nuw %"class.Assimp::MDLImporter", ptr %16, i32 0, i32 8
  %79 = load ptr, ptr %78, align 8
  %80 = getelementptr inbounds nuw %struct.aiScene, ptr %79, i32 0, i32 4
  store i32 1, ptr %80, align 8
  %81 = call noalias noundef nonnull ptr @_Znam(i64 noundef 8) #20
  %82 = getelementptr inbounds nuw %"class.Assimp::MDLImporter", ptr %16, i32 0, i32 8
  %83 = load ptr, ptr %82, align 8
  %84 = getelementptr inbounds nuw %struct.aiScene, ptr %83, i32 0, i32 5
  store ptr %81, ptr %84, align 8
  %85 = load ptr, ptr %11, align 8
  %86 = getelementptr inbounds nuw %"class.Assimp::MDLImporter", ptr %16, i32 0, i32 8
  %87 = load ptr, ptr %86, align 8
  %88 = getelementptr inbounds nuw %struct.aiScene, ptr %87, i32 0, i32 5
  %89 = load ptr, ptr %88, align 8
  %90 = getelementptr inbounds ptr, ptr %89, i64 0
  store ptr %85, ptr %90, align 8
  %91 = load ptr, ptr %5, align 8
  %92 = load ptr, ptr %6, align 8
  store ptr %91, ptr %92, align 8
  call void @llvm.lifetime.end.p0(i64 1028, ptr %15) #17
  call void @llvm.lifetime.end.p0(i64 12, ptr %14) #17
  call void @llvm.lifetime.end.p0(i64 8, ptr %11) #17
  call void @llvm.lifetime.end.p0(i64 4, ptr %10) #17
  store i32 0, ptr %9, align 4
  br label %93

93:                                               ; preds = %61, %46
  call void @llvm.lifetime.end.p0(i64 8, ptr %8) #17
  call void @llvm.lifetime.end.p0(i64 8, ptr %7) #17
  %94 = load i32, ptr %9, align 4
  switch i32 %94, label %105 [
    i32 0, label %95
    i32 1, label %95
  ]

95:                                               ; preds = %93, %93
  ret void

96:                                               ; preds = %59
  %97 = landingpad { ptr, i32 }
          cleanup
  %98 = extractvalue { ptr, i32 } %97, 0
  store ptr %98, ptr %12, align 8
  %99 = extractvalue { ptr, i32 } %97, 1
  store i32 %99, ptr %13, align 4
  call void @_ZdlPvm(ptr noundef %60, i64 noundef 16) #18
  call void @llvm.lifetime.end.p0(i64 8, ptr %11) #17
  call void @llvm.lifetime.end.p0(i64 4, ptr %10) #17
  call void @llvm.lifetime.end.p0(i64 8, ptr %8) #17
  call void @llvm.lifetime.end.p0(i64 8, ptr %7) #17
  br label %100

100:                                              ; preds = %96
  %101 = load ptr, ptr %12, align 8
  %102 = load i32, ptr %13, align 4
  %103 = insertvalue { ptr, i32 } poison, ptr %101, 0
  %104 = insertvalue { ptr, i32 } %103, i32 %102, 1
  resume { ptr, i32 } %104

105:                                              ; preds = %93
  unreachable
}