; Function Attrs: mustprogress uwtable
define hidden void @_ZN6Assimp11HMPImporter14CreateMaterialEPKhPS2_(ptr noundef nonnull align 8 dereferenceable(159) %0, ptr noundef %1, ptr noundef writeonly captures(none) %2) local_unnamed_addr #0 align 2 personality ptr @__gxx_personality_v0 {
  %4 = alloca ptr, align 8
  %5 = alloca i32, align 4
  %6 = alloca %struct.aiColor3D, align 4
  %7 = alloca %struct.aiString, align 4
  store ptr %1, ptr %4, align 8
  %8 = getelementptr inbounds nuw i8, ptr %0, i64 136
  %9 = load ptr, ptr %8, align 8
  %10 = getelementptr inbounds nuw i8, ptr %9, i64 24
  %11 = load ptr, ptr %10, align 8
  %12 = load ptr, ptr %11, align 8
  %13 = getelementptr inbounds nuw i8, ptr %0, i64 112
  %14 = load ptr, ptr %13, align 8
  %15 = getelementptr inbounds nuw i8, ptr %14, i64 48
  %16 = load i32, ptr %15, align 1
  %.not = icmp eq i32 %16, 0
  br i1 %.not, label %35, label %17

17:                                               ; preds = %3
  %18 = getelementptr inbounds nuw i8, ptr %14, i64 60
  %19 = load i32, ptr %18, align 1
  %.fr = freeze i32 %19
  %20 = sext i32 %.fr to i64
  %21 = tail call { i64, i1 } @llvm.umul.with.overflow.i64(i64 %20, i64 12)
  %22 = extractvalue { i64, i1 } %21, 1
  %23 = extractvalue { i64, i1 } %21, 0
  %24 = select i1 %22, i64 -1, i64 %23
  %25 = tail call noalias noundef nonnull ptr @_Znam(i64 noundef %24) #24
  %26 = icmp eq i32 %.fr, 0
  br i1 %26, label %.loopexit, label %.loopexit.loopexit

.loopexit.loopexit:                               ; preds = %17
  %27 = add nsw i64 %23, -12
  %28 = urem i64 %27, 12
  %29 = sub nuw nsw i64 %27, %28
  %30 = add nsw i64 %29, 12
  tail call void @llvm.memset.p0.i64(ptr nonnull align 4 %25, i8 0, i64 %30, i1 false)
  br label %.loopexit

.loopexit:                                        ; preds = %.loopexit.loopexit, %17
  %31 = getelementptr inbounds nuw i8, ptr %12, i64 112
  store ptr %25, ptr %31, align 8
  %32 = getelementptr inbounds nuw i8, ptr %12, i64 176
  store i32 2, ptr %32, align 8
  %33 = load i32, ptr %15, align 1
  call void @_ZN6Assimp11HMPImporter13ReadFirstSkinEjPKhPS2_(ptr noundef nonnull align 8 dereferenceable(159) %0, i32 noundef %33, ptr noundef %1, ptr noundef nonnull %4)
  %34 = load ptr, ptr %4, align 8
  store ptr %34, ptr %2, align 8
  br label %56

35:                                               ; preds = %3
  call void @llvm.lifetime.start.p0(i64 4, ptr nonnull %5) #22
  store i32 2, ptr %5, align 4
  %36 = tail call noalias noundef nonnull dereferenceable(16) ptr @_Znwm(i64 noundef 16) #24
  invoke void @_ZN10aiMaterialC1Ev(ptr noundef nonnull align 8 dereferenceable(16) %36)
          to label %37 unwind label %57

37:                                               ; preds = %35
  %38 = call noundef i32 @_ZN10aiMaterial17AddBinaryPropertyEPKvjPKcjj18aiPropertyTypeInfo(ptr noundef nonnull align 8 dereferenceable(16) %36, ptr noundef nonnull %5, i32 noundef 4, ptr noundef nonnull @.str.24, i32 noundef 0, i32 noundef 0, i32 noundef 4)
  call void @llvm.lifetime.start.p0(i64 12, ptr nonnull %6) #22
  %39 = getelementptr inbounds nuw i8, ptr %6, i64 4
  %40 = getelementptr inbounds nuw i8, ptr %6, i64 8
  store float 0x3FE3333340000000, ptr %6, align 4
  store float 0x3FE3333340000000, ptr %39, align 4
  store float 0x3FE3333340000000, ptr %40, align 4
  %41 = call noundef i32 @_ZN10aiMaterial17AddBinaryPropertyEPKvjPKcjj18aiPropertyTypeInfo(ptr noundef nonnull align 8 dereferenceable(16) %36, ptr noundef nonnull %6, i32 noundef 12, ptr noundef nonnull @.str.25, i32 noundef 0, i32 noundef 0, i32 noundef 1)
  %42 = call noundef i32 @_ZN10aiMaterial17AddBinaryPropertyEPKvjPKcjj18aiPropertyTypeInfo(ptr noundef nonnull align 8 dereferenceable(16) %36, ptr noundef nonnull %6, i32 noundef 12, ptr noundef nonnull @.str.26, i32 noundef 0, i32 noundef 0, i32 noundef 1)
  store float 0x3FA99999A0000000, ptr %6, align 4
  store float 0x3FA99999A0000000, ptr %39, align 4
  store float 0x3FA99999A0000000, ptr %40, align 4
  %43 = call noundef i32 @_ZN10aiMaterial17AddBinaryPropertyEPKvjPKcjj18aiPropertyTypeInfo(ptr noundef nonnull align 8 dereferenceable(16) %36, ptr noundef nonnull %6, i32 noundef 12, ptr noundef nonnull @.str.27, i32 noundef 0, i32 noundef 0, i32 noundef 1)
  call void @llvm.lifetime.start.p0(i64 1028, ptr nonnull %7) #22
  %44 = getelementptr inbounds nuw i8, ptr %7, i64 20
  call void @llvm.memset.p0.i64(ptr noundef nonnull align 4 dereferenceable(1028) %44, i8 0, i64 1008, i1 false)
  store i32 15, ptr %7, align 4
  %45 = getelementptr inbounds nuw i8, ptr %7, i64 4
  call void @llvm.memcpy.p0.p0.i64(ptr noundef nonnull align 4 dereferenceable(15) %45, ptr noundef nonnull align 1 dereferenceable(15) @.str.28, i64 15, i1 false)
  %46 = getelementptr inbounds nuw i8, ptr %7, i64 19
  store i8 0, ptr %46, align 1
  %47 = call noundef i32 @_ZN10aiMaterial11AddPropertyEPK8aiStringPKcjj(ptr noundef nonnull align 8 dereferenceable(16) %36, ptr noundef nonnull %7, ptr noundef nonnull @.str.29, i32 noundef 0, i32 noundef 0)
  %48 = load ptr, ptr %8, align 8
  %49 = getelementptr inbounds nuw i8, ptr %48, i64 32
  store i32 1, ptr %49, align 8
  %50 = call noalias noundef nonnull dereferenceable(8) ptr @_Znam(i64 noundef 8) #24
  %51 = load ptr, ptr %8, align 8
  %52 = getelementptr inbounds nuw i8, ptr %51, i64 40
  store ptr %50, ptr %52, align 8
  %53 = load ptr, ptr %8, align 8
  %54 = getelementptr inbounds nuw i8, ptr %53, i64 40
  %55 = load ptr, ptr %54, align 8
  store ptr %36, ptr %55, align 8
  store ptr %1, ptr %2, align 8
  call void @llvm.lifetime.end.p0(i64 1028, ptr nonnull %7) #22
  call void @llvm.lifetime.end.p0(i64 12, ptr nonnull %6) #22
  call void @llvm.lifetime.end.p0(i64 4, ptr nonnull %5) #22
  br label %56

56:                                               ; preds = %37, %.loopexit
  ret void

57:                                               ; preds = %35
  %58 = landingpad { ptr, i32 }
          cleanup
  tail call void @_ZdlPvm(ptr noundef nonnull %36, i64 noundef 16) #21
  call void @llvm.lifetime.end.p0(i64 4, ptr nonnull %5) #22
  resume { ptr, i32 } %58
}